target datalayout = "e-m:e-p270:32:32-p271:32:32-p272:64:64-i64:64-i128:128-f80:128-n8:16:32:64-S128"
target triple = "x86_64-pc-linux-gnu"

%"class.boost::unit_test::basic_cstring" = type { ptr, ptr }
%"struct.boost::execution_exception::location" = type { %"class.boost::unit_test::basic_cstring", i64, %"class.boost::unit_test::basic_cstring" }

@.str.49 = private unnamed_addr constant [17 x i8] c"unknown location\00", align 1
@_ZN5boost9unit_test13basic_cstringIKcE4nullE = linkonce_odr constant i8 0, comdat, align 1

; Function Attrs: mustprogress nounwind uwtable
define linkonce_odr hidden noundef zeroext i1 @_ZN5boost9unit_test9ut_detail20bcs_char_traits_implIKcE2eqEcc(i8 noundef signext %0, i8 noundef signext %1) #5 comdat align 2 {
  %3 = alloca i8, align 1
  %4 = alloca i8, align 1
  store i8 %0, ptr %3, align 1, !tbaa !12
  store i8 %1, ptr %4, align 1, !tbaa !12
  %5 = load i8, ptr %3, align 1, !tbaa !12
  %6 = sext i8 %5 to i32
  %7 = load i8, ptr %4, align 1, !tbaa !12
  %8 = sext i8 %7 to i32
  %9 = icmp eq i32 %6, %8
  ret i1 %9
}

; Function Attrs: mustprogress uwtable
define linkonce_odr hidden noundef i64 @_ZN5boost9unit_test9ut_detail20bcs_char_traits_implIKcE6lengthEPS3_(ptr noundef %0) #4 comdat align 2 {
  %2 = alloca ptr, align 8
  %3 = alloca i8, align 1
  %4 = alloca ptr, align 8
  store ptr %0, ptr %2, align 8, !tbaa !3
  call void @llvm.lifetime.start.p0(i64 1, ptr %3) #3
  store i8 0, ptr %3, align 1, !tbaa !12
  call void @llvm.lifetime.start.p0(i64 8, ptr %4) #3
  %5 = load ptr, ptr %2, align 8, !tbaa !3
  store ptr %5, ptr %4, align 8, !tbaa !3
  br label %6

6:                                                ; preds = %11, %1
  %7 = load ptr, ptr %4, align 8, !tbaa !3
  %8 = load i8, ptr %7, align 1, !tbaa !12
  %9 = call noundef zeroext i1 @_ZN5boost9unit_test9ut_detail20bcs_char_traits_implIKcE2eqEcc(i8 noundef signext %8, i8 noundef signext 0)
  %10 = xor i1 %9, true
  br i1 %10, label %11, label %14

11:                                               ; preds = %6
  %12 = load ptr, ptr %4, align 8, !tbaa !3
  %13 = getelementptr inbounds nuw i8, ptr %12, i32 1
  store ptr %13, ptr %4, align 8, !tbaa !3
  br label %6, !llvm.loop !84

14:                                               ; preds = %6
  %15 = load ptr, ptr %4, align 8, !tbaa !3
  %16 = load ptr, ptr %2, align 8, !tbaa !3
  %17 = ptrtoint ptr %15 to i64
  %18 = ptrtoint ptr %16 to i64
  %19 = sub i64 %17, %18
  call void @llvm.lifetime.end.p0(i64 8, ptr %4) #3
  call void @llvm.lifetime.end.p0(i64 1, ptr %3) #3
  ret i64 %19
}

; Function Attrs: inlinehint mustprogress nounwind uwtable
define linkonce_odr hidden noundef ptr @_ZN5boost9unit_test13basic_cstringIKcE8null_strEv() #17 comdat align 2 {
  ret ptr @_ZN5boost9unit_test13basic_cstringIKcE4nullE
}

; Function Attrs: inlinehint mustprogress uwtable
define linkonce_odr hidden void @_ZN5boost9unit_test13basic_cstringIKcEC2EPS2_(ptr noundef nonnull align 8 dereferenceable(16) %0, ptr noundef %1) unnamed_addr #11 comdat align 2 {
  %3 = alloca ptr, align 8
  %4 = alloca ptr, align 8
  store ptr %0, ptr %3, align 8, !tbaa !3
  store ptr %1, ptr %4, align 8, !tbaa !3
  %5 = load ptr, ptr %3, align 8
  %6 = getelementptr inbounds nuw %"class.boost::unit_test::basic_cstring", ptr %5, i32 0, i32 0
  %7 = load ptr, ptr %4, align 8, !tbaa !3
  %8 = icmp ne ptr %7, null
  br i1 %8, label %9, label %11

9:                                                ; preds = %2
  %10 = load ptr, ptr %4, align 8, !tbaa !3
  br label %13

11:                                               ; preds = %2
  %12 = call noundef ptr @_ZN5boost9unit_test13basic_cstringIKcE8null_strEv()
  br label %13

13:                                               ; preds = %11, %9
  %14 = phi ptr [ %10, %9 ], [ %12, %11 ]
  store ptr %14, ptr %6, align 8, !tbaa !59
  %15 = getelementptr inbounds nuw %"class.boost::unit_test::basic_cstring", ptr %5, i32 0, i32 1
  %16 = getelementptr inbounds nuw %"class.boost::unit_test::basic_cstring", ptr %5, i32 0, i32 0
  %17 = load ptr, ptr %16, align 8, !tbaa !59
  %18 = load ptr, ptr %4, align 8, !tbaa !3
  %19 = icmp ne ptr %18, null
  br i1 %19, label %20, label %23

20:                                               ; preds = %13
  %21 = load ptr, ptr %4, align 8, !tbaa !3
  %22 = call noundef i64 @_ZN5boost9unit_test9ut_detail20bcs_char_traits_implIKcE6lengthEPS3_(ptr noundef %21)
  br label %24

23:                                               ; preds = %13
  br label %24

24:                                               ; preds = %23, %20
  %25 = phi i64 [ %22, %20 ], [ 0, %23 ]
  %26 = getelementptr inbounds nuw i8, ptr %17, i64 %25
  store ptr %26, ptr %15, align 8, !tbaa !60
  ret void
}

; Function Attrs: mustprogress uwtable
define void @_ZN5boost19execution_exception8locationC2EPKcmS3_(ptr noundef nonnull align 8 dereferenceable(40) %0, ptr noundef %1, i64 noundef %2, ptr noundef %3) unnamed_addr #4 align 2 {
  %5 = alloca ptr, align 8
  %6 = alloca ptr, align 8
  %7 = alloca i64, align 8
  %8 = alloca ptr, align 8
  store ptr %0, ptr %5, align 8, !tbaa !3
  store ptr %1, ptr %6, align 8, !tbaa !3
  store i64 %2, ptr %7, align 8, !tbaa !28
  store ptr %3, ptr %8, align 8, !tbaa !3
  %9 = load ptr, ptr %5, align 8
  %10 = getelementptr inbounds nuw %"struct.boost::execution_exception::location", ptr %9, i32 0, i32 0
  %11 = load ptr, ptr %6, align 8, !tbaa !3
  %12 = icmp ne ptr %11, null
  br i1 %12, label %13, label %15

13:                                               ; preds = %4
  %14 = load ptr, ptr %6, align 8, !tbaa !3
  br label %16

15:                                               ; preds = %4
  br label %16

16:                                               ; preds = %15, %13
  %17 = phi ptr [ %14, %13 ], [ @.str.49, %15 ]
  call void @_ZN5boost9unit_test13basic_cstringIKcEC2EPS2_(ptr noundef nonnull align 8 dereferenceable(16) %10, ptr noundef %17)
  %18 = getelementptr inbounds nuw %"struct.boost::execution_exception::location", ptr %9, i32 0, i32 1
  %19 = load i64, ptr %7, align 8, !tbaa !28
  store i64 %19, ptr %18, align 8, !tbaa !61
  %20 = getelementptr inbounds nuw %"struct.boost::execution_exception::location", ptr %9, i32 0, i32 2
  %21 = load ptr, ptr %8, align 8, !tbaa !3
  call void @_ZN5boost9unit_test13basic_cstringIKcEC2EPS2_(ptr noundef nonnull align 8 dereferenceable(16) %20, ptr noundef %21)
  ret void
}