; Function Attrs: mustprogress nofree norecurse nosync nounwind memory(read, argmem: readwrite, inaccessiblemem: none) uwtable
define void @_ZN5boost19execution_exception8locationC2EPKcmS3_(ptr nocapture noundef nonnull writeonly align 8 dereferenceable(40) %0, ptr noundef %1, i64 noundef %2, ptr noundef %3) unnamed_addr #21 align 2 {
  %.not = icmp eq ptr %1, null
  %5 = select i1 %.not, ptr @.str.49, ptr %1
  store ptr %5, ptr %0, align 8, !tbaa !13
  br label %6

6:                                                ; preds = %6, %4
  %.0.i.i = phi ptr [ %5, %4 ], [ %9, %6 ]
  %7 = load i8, ptr %.0.i.i, align 1, !tbaa !11
  %8 = icmp eq i8 %7, 0
  %9 = getelementptr inbounds nuw i8, ptr %.0.i.i, i64 1
  br i1 %8, label %_ZN5boost9unit_test13basic_cstringIKcEC2EPS2_.exit, label %6, !llvm.loop !15

_ZN5boost9unit_test13basic_cstringIKcEC2EPS2_.exit: ; preds = %6
  %10 = ptrtoint ptr %.0.i.i to i64
  %11 = ptrtoint ptr %5 to i64
  %12 = sub i64 %10, %11
  %13 = getelementptr inbounds nuw i8, ptr %0, i64 8
  %14 = getelementptr inbounds nuw i8, ptr %5, i64 %12
  store ptr %14, ptr %13, align 8, !tbaa !17
  %15 = getelementptr inbounds nuw i8, ptr %0, i64 16
  store i64 %2, ptr %15, align 8, !tbaa !125
  %16 = getelementptr inbounds nuw i8, ptr %0, i64 24
  %.not.i = icmp eq ptr %3, null
  br i1 %.not.i, label %.thread.i, label %17

.thread.i:                                        ; preds = %_ZN5boost9unit_test13basic_cstringIKcEC2EPS2_.exit
  store ptr @_ZN5boost9unit_test13basic_cstringIKcE4nullE, ptr %16, align 8, !tbaa !13
  br label %_ZN5boost9unit_test13basic_cstringIKcEC2EPS2_.exit5

17:                                               ; preds = %_ZN5boost9unit_test13basic_cstringIKcEC2EPS2_.exit
  store ptr %3, ptr %16, align 8, !tbaa !13
  br label %18

18:                                               ; preds = %18, %17
  %.0.i.i4 = phi ptr [ %3, %17 ], [ %21, %18 ]
  %19 = load i8, ptr %.0.i.i4, align 1, !tbaa !11
  %20 = icmp eq i8 %19, 0
  %21 = getelementptr inbounds nuw i8, ptr %.0.i.i4, i64 1
  br i1 %20, label %_ZN5boost9unit_test9ut_detail20bcs_char_traits_implIKcE6lengthEPS3_.exit.i, label %18, !llvm.loop !15

_ZN5boost9unit_test9ut_detail20bcs_char_traits_implIKcE6lengthEPS3_.exit.i: ; preds = %18
  %22 = ptrtoint ptr %.0.i.i4 to i64
  %23 = ptrtoint ptr %3 to i64
  %24 = sub i64 %22, %23
  br label %_ZN5boost9unit_test13basic_cstringIKcEC2EPS2_.exit5

_ZN5boost9unit_test13basic_cstringIKcEC2EPS2_.exit5: ; preds = %.thread.i, %_ZN5boost9unit_test9ut_detail20bcs_char_traits_implIKcE6lengthEPS3_.exit.i
  %25 = phi ptr [ %3, %_ZN5boost9unit_test9ut_detail20bcs_char_traits_implIKcE6lengthEPS3_.exit.i ], [ @_ZN5boost9unit_test13basic_cstringIKcE4nullE, %.thread.i ]
  %26 = phi i64 [ %24, %_ZN5boost9unit_test9ut_detail20bcs_char_traits_implIKcE6lengthEPS3_.exit.i ], [ 0, %.thread.i ]
  %27 = getelementptr inbounds nuw i8, ptr %0, i64 32
  %28 = getelementptr inbounds nuw i8, ptr %25, i64 %26
  store ptr %28, ptr %27, align 8, !tbaa !17
  ret void
}